target datalayout = "e-m:e-p270:32:32-p271:32:32-p272:64:64-i64:64-i128:128-f80:128-n8:16:32:64-S128"
target triple = "x86_64-pc-linux-gnu"

%struct.expert_field = type { i32, i32 }

@ett_pcep_obj_record_route = internal global i32 0, align 4
@ei_pcep_subobject_bad_length = internal global %struct.expert_field zeroinitializer, align 4
@ei_pcep_non_defined_subobject = internal global %struct.expert_field zeroinitializer, align 4
@.str.1154 = private unnamed_addr constant [27 x i8] c"Non defined subobject (%d)\00", align 1
@.str.1170 = private unnamed_addr constant [50 x i8] c"Bad RRO object: subobject goes past end of object\00", align 1
@.str.1171 = private unnamed_addr constant [40 x i8] c"Bad RRO object: subobject length %u < 2\00", align 1
@.str.1172 = private unnamed_addr constant [61 x i8] c"Bad RRO subobject: subobject length %u > remaining length %u\00", align 1

; Function Attrs: null_pointer_is_valid sspstrong uwtable
define internal void @dissect_pcep_record_route_obj(ptr noundef %0, ptr noundef %1, ptr noundef %2, i32 noundef %3, i32 noundef %4, i32 noundef %5, i32 noundef %6) #0 {
  %8 = alloca ptr, align 8
  %9 = alloca ptr, align 8
  %10 = alloca ptr, align 8
  %11 = alloca i32, align 4
  %12 = alloca i32, align 4
  %13 = alloca i32, align 4
  %14 = alloca i32, align 4
  %15 = alloca i8, align 1
  %16 = alloca i8, align 1
  %17 = alloca i32, align 4
  store ptr %0, ptr %8, align 8
  store ptr %1, ptr %9, align 8
  store ptr %2, ptr %10, align 8
  store i32 %3, ptr %11, align 4
  store i32 %4, ptr %12, align 4
  store i32 %5, ptr %13, align 4
  store i32 %6, ptr %14, align 4
  call void @llvm.lifetime.start.p0(i64 1, ptr %15) #4
  call void @llvm.lifetime.start.p0(i64 1, ptr %16) #4
  call void @llvm.lifetime.start.p0(i64 4, ptr %17) #4
  %18 = load i32, ptr %12, align 4
  %19 = sub i32 %18, 4
  store i32 %19, ptr %17, align 4
  br label %20

20:                                               ; preds = %130, %7
  %21 = load i32, ptr %17, align 4
  %22 = icmp ne i32 %21, 0
  br i1 %22, label %23, label %139

23:                                               ; preds = %20
  %24 = load i32, ptr %17, align 4
  %25 = icmp ult i32 %24, 2
  br i1 %25, label %26, label %30

26:                                               ; preds = %23
  %27 = load ptr, ptr %9, align 8
  %28 = load ptr, ptr %8, align 8
  %29 = call ptr (ptr, ptr, ptr, ptr, ...) @expert_add_info_format(ptr noundef %27, ptr noundef %28, ptr noundef @ei_pcep_subobject_bad_length, ptr noundef @.str.1170)
  br label %139

30:                                               ; preds = %23
  %31 = load ptr, ptr %10, align 8
  %32 = load i32, ptr %11, align 4
  %33 = call zeroext i8 @tvb_get_uint8(ptr noundef %31, i32 noundef %32)
  store i8 %33, ptr %15, align 1
  %34 = load ptr, ptr %10, align 8
  %35 = load i32, ptr %11, align 4
  %36 = add i32 %35, 1
  %37 = call zeroext i8 @tvb_get_uint8(ptr noundef %34, i32 noundef %36)
  store i8 %37, ptr %16, align 1
  %38 = load i8, ptr %16, align 1
  %39 = zext i8 %38 to i32
  %40 = icmp slt i32 %39, 2
  br i1 %40, label %41, label %47

41:                                               ; preds = %30
  %42 = load ptr, ptr %9, align 8
  %43 = load ptr, ptr %8, align 8
  %44 = load i8, ptr %16, align 1
  %45 = zext i8 %44 to i32
  %46 = call ptr (ptr, ptr, ptr, ptr, ...) @expert_add_info_format(ptr noundef %42, ptr noundef %43, ptr noundef @ei_pcep_subobject_bad_length, ptr noundef @.str.1171, i32 noundef %45)
  br label %139

47:                                               ; preds = %30
  %48 = load i32, ptr %17, align 4
  %49 = load i8, ptr %16, align 1
  %50 = zext i8 %49 to i32
  %51 = icmp ult i32 %48, %50
  br i1 %51, label %52, label %63

52:                                               ; preds = %47
  %53 = load ptr, ptr %8, align 8
  %54 = load ptr, ptr %9, align 8
  %55 = load ptr, ptr %10, align 8
  %56 = load i32, ptr %11, align 4
  %57 = load i8, ptr %16, align 1
  %58 = zext i8 %57 to i32
  %59 = load i8, ptr %16, align 1
  %60 = zext i8 %59 to i32
  %61 = load i32, ptr %17, align 4
  %62 = call ptr (ptr, ptr, ptr, ptr, i32, i32, ptr, ...) @proto_tree_add_expert_format(ptr noundef %53, ptr noundef %54, ptr noundef @ei_pcep_subobject_bad_length, ptr noundef %55, i32 noundef %56, i32 noundef %58, ptr noundef @.str.1172, i32 noundef %60, i32 noundef %61)
  br label %139

63:                                               ; preds = %47
  %64 = load i8, ptr %15, align 1
  %65 = zext i8 %64 to i32
  switch i32 %65, label %120 [
    i32 1, label %66
    i32 2, label %75
    i32 3, label %84
    i32 4, label %93
    i32 5, label %102
    i32 36, label %102
    i32 40, label %111
  ]

66:                                               ; preds = %63
  %67 = load ptr, ptr %8, align 8
  %68 = load ptr, ptr %9, align 8
  %69 = load ptr, ptr %10, align 8
  %70 = load i32, ptr %11, align 4
  %71 = load i32, ptr %13, align 4
  %72 = load i32, ptr @ett_pcep_obj_record_route, align 4
  %73 = load i8, ptr %16, align 1
  %74 = zext i8 %73 to i32
  call void @dissect_subobj_ipv4(ptr noundef %67, ptr noundef %68, ptr noundef %69, i32 noundef %70, i32 noundef %71, i32 noundef %72, i32 noundef %74)
  br label %130

75:                                               ; preds = %63
  %76 = load ptr, ptr %8, align 8
  %77 = load ptr, ptr %9, align 8
  %78 = load ptr, ptr %10, align 8
  %79 = load i32, ptr %11, align 4
  %80 = load i32, ptr %13, align 4
  %81 = load i32, ptr @ett_pcep_obj_record_route, align 4
  %82 = load i8, ptr %16, align 1
  %83 = zext i8 %82 to i32
  call void @dissect_subobj_ipv6(ptr noundef %76, ptr noundef %77, ptr noundef %78, i32 noundef %79, i32 noundef %80, i32 noundef %81, i32 noundef %83)
  br label %130

84:                                               ; preds = %63
  %85 = load ptr, ptr %8, align 8
  %86 = load ptr, ptr %9, align 8
  %87 = load ptr, ptr %10, align 8
  %88 = load i32, ptr %11, align 4
  %89 = load i32, ptr %13, align 4
  %90 = load i32, ptr @ett_pcep_obj_record_route, align 4
  %91 = load i8, ptr %16, align 1
  %92 = zext i8 %91 to i32
  call void @dissect_subobj_label_control(ptr noundef %85, ptr noundef %86, ptr noundef %87, i32 noundef %88, i32 noundef %89, i32 noundef %90, i32 noundef %92)
  br label %130

93:                                               ; preds = %63
  %94 = load ptr, ptr %8, align 8
  %95 = load ptr, ptr %9, align 8
  %96 = load ptr, ptr %10, align 8
  %97 = load i32, ptr %11, align 4
  %98 = load i32, ptr %13, align 4
  %99 = load i32, ptr @ett_pcep_obj_record_route, align 4
  %100 = load i8, ptr %16, align 1
  %101 = zext i8 %100 to i32
  call void @dissect_subobj_unnumb_interfaceID(ptr noundef %94, ptr noundef %95, ptr noundef %96, i32 noundef %97, i32 noundef %98, i32 noundef %99, i32 noundef %101)
  br label %130

102:                                              ; preds = %63, %63
  %103 = load ptr, ptr %8, align 8
  %104 = load ptr, ptr %9, align 8
  %105 = load ptr, ptr %10, align 8
  %106 = load i32, ptr %11, align 4
  %107 = load i32, ptr %13, align 4
  %108 = load i32, ptr @ett_pcep_obj_record_route, align 4
  %109 = load i8, ptr %16, align 1
  %110 = zext i8 %109 to i32
  call void @dissect_subobj_sr(ptr noundef %103, ptr noundef %104, ptr noundef %105, i32 noundef %106, i32 noundef %107, i32 noundef %108, i32 noundef %110)
  br label %130

111:                                              ; preds = %63
  %112 = load ptr, ptr %8, align 8
  %113 = load ptr, ptr %9, align 8
  %114 = load ptr, ptr %10, align 8
  %115 = load i32, ptr %11, align 4
  %116 = load i32, ptr %13, align 4
  %117 = load i32, ptr @ett_pcep_obj_record_route, align 4
  %118 = load i8, ptr %16, align 1
  %119 = zext i8 %118 to i32
  call void @dissect_subobj_srv6(ptr noundef %112, ptr noundef %113, ptr noundef %114, i32 noundef %115, i32 noundef %116, i32 noundef %117, i32 noundef %119)
  br label %130

120:                                              ; preds = %63
  %121 = load ptr, ptr %8, align 8
  %122 = load ptr, ptr %9, align 8
  %123 = load ptr, ptr %10, align 8
  %124 = load i32, ptr %11, align 4
  %125 = load i8, ptr %16, align 1
  %126 = zext i8 %125 to i32
  %127 = load i8, ptr %15, align 1
  %128 = zext i8 %127 to i32
  %129 = call ptr (ptr, ptr, ptr, ptr, i32, i32, ptr, ...) @proto_tree_add_expert_format(ptr noundef %121, ptr noundef %122, ptr noundef @ei_pcep_non_defined_subobject, ptr noundef %123, i32 noundef %124, i32 noundef %126, ptr noundef @.str.1154, i32 noundef %128)
  br label %130

130:                                              ; preds = %120, %111, %102, %93, %84, %75, %66
  %131 = load i8, ptr %16, align 1
  %132 = zext i8 %131 to i32
  %133 = load i32, ptr %11, align 4
  %134 = add i32 %133, %132
  store i32 %134, ptr %11, align 4
  %135 = load i8, ptr %16, align 1
  %136 = zext i8 %135 to i32
  %137 = load i32, ptr %17, align 4
  %138 = sub i32 %137, %136
  store i32 %138, ptr %17, align 4
  br label %20, !llvm.loop !11

139:                                              ; preds = %52, %41, %26, %20
  call void @llvm.lifetime.end.p0(i64 4, ptr %17) #4
  call void @llvm.lifetime.end.p0(i64 1, ptr %16) #4
  call void @llvm.lifetime.end.p0(i64 1, ptr %15) #4
  ret void
}