; Function Attrs: null_pointer_is_valid sspstrong uwtable
define internal void @dissect_pcep_record_route_obj(ptr noundef %0, ptr noundef %1, ptr noundef %2, i32 noundef %3, i32 noundef %4, i32 noundef %5, i32 %6) #0 {
  %8 = add i32 %4, -4
  br label %9

9:                                                ; preds = %40, %7
  %.068 = phi i32 [ %3, %7 ], [ %41, %40 ]
  %.0 = phi i32 [ %8, %7 ], [ %42, %40 ]
  switch i32 %.0, label %12 [
    i32 0, label %.loopexit
    i32 1, label %10
  ]

10:                                               ; preds = %9
  %11 = tail call ptr (ptr, ptr, ptr, ptr, ...) @expert_add_info_format(ptr noundef %1, ptr noundef %0, ptr noundef nonnull @ei_pcep_subobject_bad_length, ptr noundef nonnull @.str.1170)
  br label %.loopexit

12:                                               ; preds = %9
  %13 = tail call zeroext i8 @tvb_get_uint8(ptr noundef %2, i32 noundef %.068)
  %14 = add i32 %.068, 1
  %15 = tail call zeroext i8 @tvb_get_uint8(ptr noundef %2, i32 noundef %14)
  %16 = zext i8 %15 to i32
  %17 = icmp ult i8 %15, 2
  br i1 %17, label %18, label %20

18:                                               ; preds = %12
  %19 = tail call ptr (ptr, ptr, ptr, ptr, ...) @expert_add_info_format(ptr noundef %1, ptr noundef %0, ptr noundef nonnull @ei_pcep_subobject_bad_length, ptr noundef nonnull @.str.1171, i32 noundef %16)
  br label %.loopexit

20:                                               ; preds = %12
  %21 = icmp ult i32 %.0, %16
  br i1 %21, label %22, label %24

22:                                               ; preds = %20
  %23 = tail call ptr (ptr, ptr, ptr, ptr, i32, i32, ptr, ...) @proto_tree_add_expert_format(ptr noundef %0, ptr noundef %1, ptr noundef nonnull @ei_pcep_subobject_bad_length, ptr noundef %2, i32 noundef %.068, i32 noundef %16, ptr noundef nonnull @.str.1172, i32 noundef %16, i32 noundef %.0)
  br label %.loopexit

24:                                               ; preds = %20
  switch i8 %13, label %37 [
    i8 1, label %25
    i8 2, label %27
    i8 3, label %29
    i8 4, label %31
    i8 5, label %33
    i8 36, label %33
    i8 40, label %35
  ]

25:                                               ; preds = %24
  %26 = load i32, ptr @ett_pcep_obj_record_route, align 4
  tail call fastcc void @dissect_subobj_ipv4(ptr noundef %0, ptr noundef %1, ptr noundef %2, i32 noundef %.068, i32 noundef %5, i32 noundef %26, i32 noundef %16)
  br label %40

27:                                               ; preds = %24
  %28 = load i32, ptr @ett_pcep_obj_record_route, align 4
  tail call fastcc void @dissect_subobj_ipv6(ptr noundef %0, ptr noundef %1, ptr noundef %2, i32 noundef %.068, i32 noundef %5, i32 noundef %28, i32 noundef %16)
  br label %40

29:                                               ; preds = %24
  %30 = load i32, ptr @ett_pcep_obj_record_route, align 4
  tail call fastcc void @dissect_subobj_label_control(ptr noundef %0, ptr noundef %1, ptr noundef %2, i32 noundef %.068, i32 noundef %5, i32 noundef %30, i32 noundef %16)
  br label %40

31:                                               ; preds = %24
  %32 = load i32, ptr @ett_pcep_obj_record_route, align 4
  tail call fastcc void @dissect_subobj_unnumb_interfaceID(ptr noundef %0, ptr noundef %1, ptr noundef %2, i32 noundef %.068, i32 noundef %5, i32 noundef %32, i32 noundef %16)
  br label %40

33:                                               ; preds = %24, %24
  %34 = load i32, ptr @ett_pcep_obj_record_route, align 4
  tail call fastcc void @dissect_subobj_sr(ptr noundef %0, ptr noundef %1, ptr noundef %2, i32 noundef %.068, i32 noundef %5, i32 noundef %34, i32 noundef %16)
  br label %40

35:                                               ; preds = %24
  %36 = load i32, ptr @ett_pcep_obj_record_route, align 4
  tail call fastcc void @dissect_subobj_srv6(ptr noundef %0, ptr noundef %1, ptr noundef %2, i32 noundef %.068, i32 noundef %5, i32 noundef %36, i32 noundef %16)
  br label %40

37:                                               ; preds = %24
  %38 = zext i8 %13 to i32
  %39 = tail call ptr (ptr, ptr, ptr, ptr, i32, i32, ptr, ...) @proto_tree_add_expert_format(ptr noundef %0, ptr noundef %1, ptr noundef nonnull @ei_pcep_non_defined_subobject, ptr noundef %2, i32 noundef %.068, i32 noundef %16, ptr noundef nonnull @.str.1154, i32 noundef %38)
  br label %40

40:                                               ; preds = %37, %35, %33, %31, %29, %27, %25
  %41 = add i32 %.068, %16
  %42 = sub i32 %.0, %16
  br label %9, !llvm.loop !11

.loopexit:                                        ; preds = %9, %22, %18, %10
  ret void
}